; Function Attrs: mustprogress uwtable
define void @_ZNK32pxrInternal_v0_24__pxrReserved__19HdDataSourceLocator15GetCommonPrefixERKS0_(ptr dead_on_unwind noalias writable sret(%"class.pxrInternal_v0_24__pxrReserved__::HdDataSourceLocator") align 8 %0, ptr noundef nonnull align 8 dereferenceable(56) %1, ptr nocapture noundef nonnull readonly align 8 dereferenceable(56) %2) local_unnamed_addr #0 align 2 personality ptr @__gxx_personality_v0 {
  %4 = getelementptr inbounds nuw i8, ptr %1, i64 48
  %5 = load i32, ptr %4, align 8
  %6 = getelementptr inbounds nuw i8, ptr %2, i64 48
  %7 = load i32, ptr %6, align 8
  %8 = tail call i32 @llvm.umin.i32(i32 %7, i32 %5)
  %.sroa.speculated = zext i32 %8 to i64
  %.not15 = icmp eq i32 %8, 0
  %.phi.trans.insert = getelementptr inbounds nuw i8, ptr %1, i64 52
  %.pre = load i32, ptr %.phi.trans.insert, align 4
  br i1 %.not15, label %.._crit_edge_crit_edge, label %.lr.ph

.._crit_edge_crit_edge:                           ; preds = %3
  %.pre16 = load ptr, ptr %1, align 8
  br label %._crit_edge

.lr.ph:                                           ; preds = %3
  %9 = icmp ult i32 %.pre, 7
  %10 = load ptr, ptr %1, align 8
  %spec.select.i.i.i = select i1 %9, ptr %1, ptr %10
  %11 = getelementptr inbounds nuw i8, ptr %2, i64 52
  %12 = load i32, ptr %11, align 4
  %13 = icmp ult i32 %12, 7
  %14 = load ptr, ptr %2, align 8
  %spec.select.i.i.i8 = select i1 %13, ptr %2, ptr %14
  br label %15

15:                                               ; preds = %.lr.ph, %26
  %.012 = phi i64 [ 0, %.lr.ph ], [ %27, %26 ]
  %16 = getelementptr inbounds %"class.pxrInternal_v0_24__pxrReserved__::TfToken", ptr %spec.select.i.i.i, i64 %.012
  %17 = getelementptr inbounds %"class.pxrInternal_v0_24__pxrReserved__::TfToken", ptr %spec.select.i.i.i8, i64 %.012
  %18 = load ptr, ptr %16, align 8
  %19 = ptrtoint ptr %18 to i64
  %20 = and i64 %19, -8
  %21 = inttoptr i64 %20 to ptr
  %22 = load ptr, ptr %17, align 8
  %23 = ptrtoint ptr %22 to i64
  %24 = and i64 %23, -8
  %25 = inttoptr i64 %24 to ptr
  %.not = icmp eq ptr %21, %25
  br i1 %.not, label %26, label %._crit_edge

26:                                               ; preds = %15
  %27 = add nuw nsw i64 %.012, 1
  %exitcond.not = icmp eq i64 %27, %.sroa.speculated
  br i1 %exitcond.not, label %._crit_edge, label %15, !llvm.loop !13

._crit_edge:                                      ; preds = %26, %15, %.._crit_edge_crit_edge
  %28 = phi ptr [ %.pre16, %.._crit_edge_crit_edge ], [ %10, %15 ], [ %10, %26 ]
  %.0.lcssa = phi i64 [ 0, %.._crit_edge_crit_edge ], [ %.sroa.speculated, %26 ], [ %.012, %15 ]
  %29 = icmp ult i32 %.pre, 7
  %spec.select.i.i = select i1 %29, ptr %1, ptr %28
  tail call void @_ZN32pxrInternal_v0_24__pxrReserved__19HdDataSourceLocatorC1EmPKNS_7TfTokenE(ptr noundef nonnull align 8 dereferenceable(56) %0, i64 noundef %.0.lcssa, ptr noundef %spec.select.i.i)
  ret void
}